target datalayout = "e-m:e-p270:32:32-p271:32:32-p272:64:64-i64:64-i128:128-f80:128-n8:16:32:64-S128"
target triple = "x86_64-pc-linux-gnu"

%struct.block_iq4_nl = type { i16, [16 x i8] }

@kvalues_iq4nl = internal constant [16 x i8] c"\81\98\AD\BF\CF\DD\EA\F6\01\0D\19&5EYq", align 16
@.str = private unnamed_addr constant [120 x i8] c"generated/home/dtcxzyw/WorkSpace/Projects/compilers/llvm-opt-benchmark/bench/llama.cpp/llama.cpp/ggml/src/ggml-quants.c\00", align 1
@.str.1 = private unnamed_addr constant [23 x i8] c"GGML_ASSERT(%s) failed\00", align 1
@.str.5 = private unnamed_addr constant [22 x i8] c"n_per_row%QK4_NL == 0\00", align 1

; Function Attrs: nounwind uwtable
define i64 @quantize_iq4_nl(ptr noalias noundef %0, ptr noalias noundef %1, i64 noundef %2, i64 noundef %3, ptr noundef %4) #0 {
  %6 = alloca ptr, align 8
  %7 = alloca ptr, align 8
  %8 = alloca i64, align 8
  %9 = alloca i64, align 8
  %10 = alloca ptr, align 8
  %11 = alloca i64, align 8
  %12 = alloca ptr, align 8
  %13 = alloca [32 x i8], align 16
  %14 = alloca [32 x float], align 16
  %15 = alloca i16, align 2
  %16 = alloca ptr, align 8
  %17 = alloca float, align 4
  %18 = alloca i64, align 8
  %19 = alloca i32, align 4
  %20 = alloca ptr, align 8
  %21 = alloca i32, align 4
  %22 = alloca ptr, align 8
  store ptr %0, ptr %6, align 8, !tbaa !3
  store ptr %1, ptr %7, align 8, !tbaa !8
  store i64 %2, ptr %8, align 8, !tbaa !9
  store i64 %3, ptr %9, align 8, !tbaa !9
  store ptr %4, ptr %10, align 8, !tbaa !3
  %23 = load i64, ptr %9, align 8, !tbaa !9
  %24 = srem i64 %23, 32
  %25 = icmp eq i64 %24, 0
  br i1 %25, label %27, label %26

26:                                               ; preds = %5
  call void (ptr, i32, ptr, ...) @ggml_abort(ptr noundef @.str, i32 noundef 4685, ptr noundef @.str.1, ptr noundef @.str.5) #11
  unreachable

27:                                               ; preds = %5
  call void @llvm.lifetime.start.p0(i64 8, ptr %11) #10
  %28 = load i64, ptr %9, align 8, !tbaa !9
  %29 = sdiv i64 %28, 32
  store i64 %29, ptr %11, align 8, !tbaa !9
  call void @llvm.lifetime.start.p0(i64 8, ptr %12) #10
  %30 = load ptr, ptr %7, align 8, !tbaa !8
  store ptr %30, ptr %12, align 8, !tbaa !61
  call void @llvm.lifetime.start.p0(i64 32, ptr %13) #10
  call void @llvm.lifetime.start.p0(i64 128, ptr %14) #10
  call void @llvm.lifetime.start.p0(i64 2, ptr %15) #10
  call void @llvm.lifetime.start.p0(i64 8, ptr %16) #10
  store ptr null, ptr %16, align 8, !tbaa !61
  call void @llvm.lifetime.start.p0(i64 4, ptr %17) #10
  call void @llvm.lifetime.start.p0(i64 8, ptr %18) #10
  store i64 0, ptr %18, align 8, !tbaa !9
  br label %31

31:                                               ; preds = %87, %27
  %32 = load i64, ptr %18, align 8, !tbaa !9
  %33 = load i64, ptr %8, align 8, !tbaa !9
  %34 = icmp slt i64 %32, %33
  br i1 %34, label %36, label %35

35:                                               ; preds = %31
  store i32 2, ptr %19, align 4
  call void @llvm.lifetime.end.p0(i64 8, ptr %18) #10
  br label %90

36:                                               ; preds = %31
  call void @llvm.lifetime.start.p0(i64 8, ptr %20) #10
  %37 = load ptr, ptr %12, align 8, !tbaa !61
  store ptr %37, ptr %20, align 8, !tbaa !8
  call void @llvm.lifetime.start.p0(i64 4, ptr %21) #10
  store i32 0, ptr %21, align 4, !tbaa !11
  br label %38

38:                                               ; preds = %76, %36
  %39 = load i32, ptr %21, align 4, !tbaa !11
  %40 = sext i32 %39 to i64
  %41 = load i64, ptr %11, align 8, !tbaa !9
  %42 = icmp slt i64 %40, %41
  br i1 %42, label %44, label %43

43:                                               ; preds = %38
  store i32 5, ptr %19, align 4
  call void @llvm.lifetime.end.p0(i64 4, ptr %21) #10
  br label %79

44:                                               ; preds = %38
  call void @llvm.lifetime.start.p0(i64 8, ptr %22) #10
  %45 = load ptr, ptr %10, align 8, !tbaa !3
  %46 = icmp ne ptr %45, null
  br i1 %46, label %47, label %53

47:                                               ; preds = %44
  %48 = load ptr, ptr %10, align 8, !tbaa !3
  %49 = load i32, ptr %21, align 4, !tbaa !11
  %50 = mul nsw i32 32, %49
  %51 = sext i32 %50 to i64
  %52 = getelementptr inbounds float, ptr %48, i64 %51
  br label %54

53:                                               ; preds = %44
  br label %54

54:                                               ; preds = %53, %47
  %55 = phi ptr [ %52, %47 ], [ null, %53 ]
  store ptr %55, ptr %22, align 8, !tbaa !3
  %56 = load ptr, ptr %6, align 8, !tbaa !3
  %57 = load i32, ptr %21, align 4, !tbaa !11
  %58 = mul nsw i32 32, %57
  %59 = sext i32 %58 to i64
  %60 = getelementptr inbounds float, ptr %56, i64 %59
  %61 = load ptr, ptr %20, align 8, !tbaa !8
  %62 = load i32, ptr %21, align 4, !tbaa !11
  %63 = sext i32 %62 to i64
  %64 = getelementptr inbounds %struct.block_iq4_nl, ptr %61, i64 %63
  %65 = getelementptr inbounds nuw %struct.block_iq4_nl, ptr %64, i32 0, i32 0
  %66 = load ptr, ptr %20, align 8, !tbaa !8
  %67 = load i32, ptr %21, align 4, !tbaa !11
  %68 = sext i32 %67 to i64
  %69 = getelementptr inbounds %struct.block_iq4_nl, ptr %66, i64 %68
  %70 = getelementptr inbounds nuw %struct.block_iq4_nl, ptr %69, i32 0, i32 1
  %71 = getelementptr inbounds [16 x i8], ptr %70, i64 0, i64 0
  %72 = load ptr, ptr %16, align 8, !tbaa !61
  %73 = getelementptr inbounds [32 x float], ptr %14, i64 0, i64 0
  %74 = getelementptr inbounds [32 x i8], ptr %13, i64 0, i64 0
  %75 = load ptr, ptr %22, align 8, !tbaa !3
  call void @quantize_row_iq4_nl_impl(i32 noundef 32, i32 noundef 32, ptr noundef %60, ptr noundef %65, ptr noundef %71, ptr noundef %15, ptr noundef %72, ptr noundef %17, ptr noundef %73, ptr noundef %74, ptr noundef @kvalues_iq4nl, ptr noundef %75, i32 noundef 7)
  call void @llvm.lifetime.end.p0(i64 8, ptr %22) #10
  br label %76

76:                                               ; preds = %54
  %77 = load i32, ptr %21, align 4, !tbaa !11
  %78 = add nsw i32 %77, 1
  store i32 %78, ptr %21, align 4, !tbaa !11
  br label %38, !llvm.loop !511

79:                                               ; preds = %43
  %80 = load i64, ptr %9, align 8, !tbaa !9
  %81 = load ptr, ptr %6, align 8, !tbaa !3
  %82 = getelementptr inbounds float, ptr %81, i64 %80
  store ptr %82, ptr %6, align 8, !tbaa !3
  %83 = load i64, ptr %11, align 8, !tbaa !9
  %84 = mul i64 %83, 18
  %85 = load ptr, ptr %12, align 8, !tbaa !61
  %86 = getelementptr inbounds nuw i8, ptr %85, i64 %84
  store ptr %86, ptr %12, align 8, !tbaa !61
  call void @llvm.lifetime.end.p0(i64 8, ptr %20) #10
  br label %87

87:                                               ; preds = %79
  %88 = load i64, ptr %18, align 8, !tbaa !9
  %89 = add nsw i64 %88, 1
  store i64 %89, ptr %18, align 8, !tbaa !9
  br label %31, !llvm.loop !512

90:                                               ; preds = %35
  %91 = load i64, ptr %8, align 8, !tbaa !9
  %92 = load i64, ptr %11, align 8, !tbaa !9
  %93 = mul nsw i64 %91, %92
  %94 = mul i64 %93, 18
  store i32 1, ptr %19, align 4
  call void @llvm.lifetime.end.p0(i64 4, ptr %17) #10
  call void @llvm.lifetime.end.p0(i64 8, ptr %16) #10
  call void @llvm.lifetime.end.p0(i64 2, ptr %15) #10
  call void @llvm.lifetime.end.p0(i64 128, ptr %14) #10
  call void @llvm.lifetime.end.p0(i64 32, ptr %13) #10
  call void @llvm.lifetime.end.p0(i64 8, ptr %12) #10
  call void @llvm.lifetime.end.p0(i64 8, ptr %11) #10
  ret i64 %94
}