; Function Attrs: nounwind uwtable
define i64 @quantize_iq4_nl(ptr noalias noundef readonly captures(none) %0, ptr noalias noundef writeonly captures(none) %1, i64 noundef %2, i64 noundef %3, ptr noundef %4) local_unnamed_addr #6 {
  %6 = alloca [32 x i8], align 16
  %7 = alloca [32 x float], align 16
  %8 = alloca i16, align 2
  %9 = alloca float, align 4
  %10 = and i64 %3, 31
  %11 = icmp eq i64 %10, 0
  br i1 %11, label %13, label %12

12:                                               ; preds = %5
  tail call void (ptr, i32, ptr, ...) @ggml_abort(ptr noundef nonnull @.str, i32 noundef 4685, ptr noundef nonnull @.str.1, ptr noundef nonnull @.str.5) #24
  unreachable

13:                                               ; preds = %5
  %14 = ashr exact i64 %3, 5
  call void @llvm.lifetime.start.p0(i64 32, ptr nonnull %6) #23
  call void @llvm.lifetime.start.p0(i64 128, ptr nonnull %7) #23
  call void @llvm.lifetime.start.p0(i64 2, ptr nonnull %8) #23
  call void @llvm.lifetime.start.p0(i64 4, ptr nonnull %9) #23
  %15 = icmp sgt i64 %2, 0
  br i1 %15, label %.preheader.lr.ph, label %._crit_edge38

.preheader.lr.ph:                                 ; preds = %13
  %16 = icmp sgt i64 %14, 0
  %17 = mul nsw i64 %14, 18
  br i1 %16, label %.preheader.lr.ph.split.us, label %._crit_edge38

.preheader.lr.ph.split.us:                        ; preds = %.preheader.lr.ph
  %.not = icmp eq ptr %4, null
  br i1 %.not, label %.preheader.us.us, label %.preheader.us

.preheader.us.us:                                 ; preds = %.preheader.lr.ph.split.us, %._crit_edge.split.us.us.us
  %.036.us.us = phi ptr [ %22, %._crit_edge.split.us.us.us ], [ %0, %.preheader.lr.ph.split.us ]
  %.02734.us.us = phi ptr [ %23, %._crit_edge.split.us.us.us ], [ %1, %.preheader.lr.ph.split.us ]
  %.02833.us.us = phi i64 [ %24, %._crit_edge.split.us.us.us ], [ 0, %.preheader.lr.ph.split.us ]
  br label %18

18:                                               ; preds = %18, %.preheader.us.us
  %indvars.iv46 = phi i64 [ %indvars.iv.next47, %18 ], [ 0, %.preheader.us.us ]
  %.idx = shl nsw i64 %indvars.iv46, 7
  %19 = getelementptr inbounds nuw i8, ptr %.036.us.us, i64 %.idx
  %20 = getelementptr inbounds nuw %struct.block_iq4_nl, ptr %.02734.us.us, i64 %indvars.iv46
  %21 = getelementptr inbounds nuw i8, ptr %20, i64 2
  call fastcc void @quantize_row_iq4_nl_impl(i32 noundef 32, ptr noundef %19, ptr noundef %20, ptr noundef nonnull %21, ptr noundef nonnull %8, ptr noundef null, ptr noundef %9, ptr noundef %7, ptr noundef %6, ptr noundef null, i32 noundef 7)
  %indvars.iv.next47 = add nuw nsw i64 %indvars.iv46, 1
  %exitcond49.not = icmp eq i64 %indvars.iv.next47, %14
  br i1 %exitcond49.not, label %._crit_edge.split.us.us.us, label %18, !llvm.loop !1082

._crit_edge.split.us.us.us:                       ; preds = %18
  %22 = getelementptr inbounds float, ptr %.036.us.us, i64 %3
  %23 = getelementptr inbounds nuw i8, ptr %.02734.us.us, i64 %17
  %24 = add nuw nsw i64 %.02833.us.us, 1
  %exitcond50.not = icmp eq i64 %24, %2
  br i1 %exitcond50.not, label %._crit_edge38, label %.preheader.us.us, !llvm.loop !1083

.preheader.us:                                    ; preds = %.preheader.lr.ph.split.us, %._crit_edge.split.us40
  %.036.us = phi ptr [ %31, %._crit_edge.split.us40 ], [ %0, %.preheader.lr.ph.split.us ]
  %.02734.us = phi ptr [ %32, %._crit_edge.split.us40 ], [ %1, %.preheader.lr.ph.split.us ]
  %.02833.us = phi i64 [ %33, %._crit_edge.split.us40 ], [ 0, %.preheader.lr.ph.split.us ]
  br label %25

25:                                               ; preds = %.preheader.us, %25
  %indvars.iv = phi i64 [ 0, %.preheader.us ], [ %indvars.iv.next, %25 ]
  %26 = shl nsw i64 %indvars.iv, 5
  %27 = getelementptr inbounds nuw float, ptr %4, i64 %26
  %28 = getelementptr inbounds nuw float, ptr %.036.us, i64 %26
  %29 = getelementptr inbounds nuw %struct.block_iq4_nl, ptr %.02734.us, i64 %indvars.iv
  %30 = getelementptr inbounds nuw i8, ptr %29, i64 2
  call fastcc void @quantize_row_iq4_nl_impl(i32 noundef 32, ptr noundef %28, ptr noundef %29, ptr noundef nonnull %30, ptr noundef nonnull %8, ptr noundef null, ptr noundef %9, ptr noundef %7, ptr noundef %6, ptr noundef nonnull %27, i32 noundef 7)
  %indvars.iv.next = add nuw nsw i64 %indvars.iv, 1
  %exitcond.not = icmp eq i64 %indvars.iv.next, %14
  br i1 %exitcond.not, label %._crit_edge.split.us40, label %25, !llvm.loop !1082

._crit_edge.split.us40:                           ; preds = %25
  %31 = getelementptr inbounds float, ptr %.036.us, i64 %3
  %32 = getelementptr inbounds nuw i8, ptr %.02734.us, i64 %17
  %33 = add nuw nsw i64 %.02833.us, 1
  %exitcond45.not = icmp eq i64 %33, %2
  br i1 %exitcond45.not, label %._crit_edge38, label %.preheader.us, !llvm.loop !1083

._crit_edge38:                                    ; preds = %._crit_edge.split.us40, %._crit_edge.split.us.us.us, %.preheader.lr.ph, %13
  %34 = mul i64 %2, 18
  %35 = mul i64 %34, %14
  call void @llvm.lifetime.end.p0(i64 4, ptr nonnull %9) #23
  call void @llvm.lifetime.end.p0(i64 2, ptr nonnull %8) #23
  call void @llvm.lifetime.end.p0(i64 128, ptr nonnull %7) #23
  call void @llvm.lifetime.end.p0(i64 32, ptr nonnull %6) #23
  ret i64 %35
}